target datalayout = "e-m:e-p270:32:32-p271:32:32-p272:64:64-i64:64-i128:128-f80:128-n8:16:32:64-S128"
target triple = "x86_64-pc-linux-gnu"

@hf_mpeg_descr_extended_event_descriptor_number = internal global i32 0, align 4
@hf_mpeg_descr_extended_event_last_descriptor_number = internal global i32 0, align 4
@hf_mpeg_descr_extended_event_lang_code = internal global i32 0, align 4
@hf_mpeg_descr_extended_event_length_of_items = internal global i32 0, align 4
@hf_mpeg_descr_extended_event_item_description_length = internal global i32 0, align 4
@hf_mpeg_descr_extended_event_item_description_char = internal global i32 0, align 4
@hf_mpeg_descr_extended_event_item_length = internal global i32 0, align 4
@hf_mpeg_descr_extended_event_item_char = internal global i32 0, align 4
@.str.266 = private unnamed_addr constant [5 x i8] c"Item\00", align 1
@hf_mpeg_descr_extended_event_text_length = internal global i32 0, align 4
@hf_mpeg_descr_extended_event_text_encoding = internal global i32 0, align 4
@hf_mpeg_descr_extended_event_text = internal global i32 0, align 4
@ett_mpeg_descriptor_extended_event_item = internal global i32 0, align 4

; Function Attrs: null_pointer_is_valid sspstrong uwtable
define internal void @proto_mpeg_descriptor_dissect_extended_event(ptr noundef %0, i32 noundef %1, ptr noundef %2) #1 {
  %4 = alloca ptr, align 8
  %5 = alloca i32, align 4
  %6 = alloca ptr, align 8
  %7 = alloca i8, align 1
  %8 = alloca i8, align 1
  %9 = alloca i8, align 1
  %10 = alloca i8, align 1
  %11 = alloca i32, align 4
  %12 = alloca ptr, align 8
  %13 = alloca i32, align 4
  %14 = alloca i32, align 4
  store ptr %0, ptr %4, align 8
  store i32 %1, ptr %5, align 4
  store ptr %2, ptr %6, align 8
  call void @llvm.lifetime.start.p0(i64 1, ptr %7) #4
  call void @llvm.lifetime.start.p0(i64 1, ptr %8) #4
  call void @llvm.lifetime.start.p0(i64 1, ptr %9) #4
  call void @llvm.lifetime.start.p0(i64 1, ptr %10) #4
  call void @llvm.lifetime.start.p0(i64 4, ptr %11) #4
  call void @llvm.lifetime.start.p0(i64 8, ptr %12) #4
  call void @llvm.lifetime.start.p0(i64 4, ptr %13) #4
  call void @llvm.lifetime.start.p0(i64 4, ptr %14) #4
  %15 = load ptr, ptr %6, align 8
  %16 = load i32, ptr @hf_mpeg_descr_extended_event_descriptor_number, align 4
  %17 = load ptr, ptr %4, align 8
  %18 = load i32, ptr %5, align 4
  %19 = call ptr @proto_tree_add_item(ptr noundef %15, i32 noundef %16, ptr noundef %17, i32 noundef %18, i32 noundef 1, i32 noundef 0)
  %20 = load ptr, ptr %6, align 8
  %21 = load i32, ptr @hf_mpeg_descr_extended_event_last_descriptor_number, align 4
  %22 = load ptr, ptr %4, align 8
  %23 = load i32, ptr %5, align 4
  %24 = call ptr @proto_tree_add_item(ptr noundef %20, i32 noundef %21, ptr noundef %22, i32 noundef %23, i32 noundef 1, i32 noundef 0)
  %25 = load i32, ptr %5, align 4
  %26 = add i32 %25, 1
  store i32 %26, ptr %5, align 4
  %27 = load ptr, ptr %6, align 8
  %28 = load i32, ptr @hf_mpeg_descr_extended_event_lang_code, align 4
  %29 = load ptr, ptr %4, align 8
  %30 = load i32, ptr %5, align 4
  %31 = call ptr @proto_tree_add_item(ptr noundef %27, i32 noundef %28, ptr noundef %29, i32 noundef %30, i32 noundef 3, i32 noundef 0)
  %32 = load i32, ptr %5, align 4
  %33 = add i32 %32, 3
  store i32 %33, ptr %5, align 4
  %34 = load ptr, ptr %4, align 8
  %35 = load i32, ptr %5, align 4
  %36 = call zeroext i8 @tvb_get_uint8(ptr noundef %34, i32 noundef %35)
  store i8 %36, ptr %7, align 1
  %37 = load ptr, ptr %6, align 8
  %38 = load i32, ptr @hf_mpeg_descr_extended_event_length_of_items, align 4
  %39 = load ptr, ptr %4, align 8
  %40 = load i32, ptr %5, align 4
  %41 = call ptr @proto_tree_add_item(ptr noundef %37, i32 noundef %38, ptr noundef %39, i32 noundef %40, i32 noundef 1, i32 noundef 0)
  %42 = load i32, ptr %5, align 4
  %43 = add i32 %42, 1
  store i32 %43, ptr %5, align 4
  %44 = load i32, ptr %5, align 4
  %45 = load i8, ptr %7, align 1
  %46 = zext i8 %45 to i32
  %47 = add i32 %44, %46
  store i32 %47, ptr %11, align 4
  br label %48

48:                                               ; preds = %52, %3
  %49 = load i32, ptr %5, align 4
  %50 = load i32, ptr %11, align 4
  %51 = icmp ult i32 %49, %50
  br i1 %51, label %52, label %100

52:                                               ; preds = %48
  %53 = load ptr, ptr %6, align 8
  %54 = load ptr, ptr %4, align 8
  %55 = load i32, ptr %5, align 4
  %56 = load i32, ptr @ett_mpeg_descriptor_extended_event_item, align 4
  %57 = call ptr @proto_tree_add_subtree(ptr noundef %53, ptr noundef %54, i32 noundef %55, i32 noundef 0, i32 noundef %56, ptr noundef null, ptr noundef @.str.266)
  store ptr %57, ptr %12, align 8
  %58 = load ptr, ptr %4, align 8
  %59 = load i32, ptr %5, align 4
  %60 = call zeroext i8 @tvb_get_uint8(ptr noundef %58, i32 noundef %59)
  store i8 %60, ptr %8, align 1
  %61 = load ptr, ptr %12, align 8
  %62 = load i32, ptr @hf_mpeg_descr_extended_event_item_description_length, align 4
  %63 = load ptr, ptr %4, align 8
  %64 = load i32, ptr %5, align 4
  %65 = call ptr @proto_tree_add_item(ptr noundef %61, i32 noundef %62, ptr noundef %63, i32 noundef %64, i32 noundef 1, i32 noundef 0)
  %66 = load i32, ptr %5, align 4
  %67 = add i32 %66, 1
  store i32 %67, ptr %5, align 4
  %68 = load ptr, ptr %12, align 8
  %69 = load i32, ptr @hf_mpeg_descr_extended_event_item_description_char, align 4
  %70 = load ptr, ptr %4, align 8
  %71 = load i32, ptr %5, align 4
  %72 = load i8, ptr %8, align 1
  %73 = zext i8 %72 to i32
  %74 = call ptr @proto_tree_add_item(ptr noundef %68, i32 noundef %69, ptr noundef %70, i32 noundef %71, i32 noundef %73, i32 noundef 0)
  %75 = load i8, ptr %8, align 1
  %76 = zext i8 %75 to i32
  %77 = load i32, ptr %5, align 4
  %78 = add i32 %77, %76
  store i32 %78, ptr %5, align 4
  %79 = load ptr, ptr %4, align 8
  %80 = load i32, ptr %5, align 4
  %81 = call zeroext i8 @tvb_get_uint8(ptr noundef %79, i32 noundef %80)
  store i8 %81, ptr %9, align 1
  %82 = load ptr, ptr %12, align 8
  %83 = load i32, ptr @hf_mpeg_descr_extended_event_item_length, align 4
  %84 = load ptr, ptr %4, align 8
  %85 = load i32, ptr %5, align 4
  %86 = call ptr @proto_tree_add_item(ptr noundef %82, i32 noundef %83, ptr noundef %84, i32 noundef %85, i32 noundef 1, i32 noundef 0)
  %87 = load i32, ptr %5, align 4
  %88 = add i32 %87, 1
  store i32 %88, ptr %5, align 4
  %89 = load ptr, ptr %12, align 8
  %90 = load i32, ptr @hf_mpeg_descr_extended_event_item_char, align 4
  %91 = load ptr, ptr %4, align 8
  %92 = load i32, ptr %5, align 4
  %93 = load i8, ptr %9, align 1
  %94 = zext i8 %93 to i32
  %95 = call ptr @proto_tree_add_item(ptr noundef %89, i32 noundef %90, ptr noundef %91, i32 noundef %92, i32 noundef %94, i32 noundef 0)
  %96 = load i8, ptr %9, align 1
  %97 = zext i8 %96 to i32
  %98 = load i32, ptr %5, align 4
  %99 = add i32 %98, %97
  store i32 %99, ptr %5, align 4
  br label %48, !llvm.loop !14

100:                                              ; preds = %48
  %101 = load ptr, ptr %4, align 8
  %102 = load i32, ptr %5, align 4
  %103 = call zeroext i8 @tvb_get_uint8(ptr noundef %101, i32 noundef %102)
  store i8 %103, ptr %10, align 1
  %104 = load ptr, ptr %6, align 8
  %105 = load i32, ptr @hf_mpeg_descr_extended_event_text_length, align 4
  %106 = load ptr, ptr %4, align 8
  %107 = load i32, ptr %5, align 4
  %108 = call ptr @proto_tree_add_item(ptr noundef %104, i32 noundef %105, ptr noundef %106, i32 noundef %107, i32 noundef 1, i32 noundef 0)
  %109 = load i32, ptr %5, align 4
  %110 = add i32 %109, 1
  store i32 %110, ptr %5, align 4
  %111 = load i8, ptr %10, align 1
  %112 = zext i8 %111 to i32
  %113 = icmp sgt i32 %112, 0
  br i1 %113, label %114, label %139

114:                                              ; preds = %100
  %115 = load ptr, ptr %4, align 8
  %116 = load i32, ptr %5, align 4
  %117 = load i8, ptr %10, align 1
  %118 = zext i8 %117 to i32
  %119 = call i32 @dvb_analyze_string_charset(ptr noundef %115, i32 noundef %116, i32 noundef %118, ptr noundef %14)
  store i32 %119, ptr %13, align 4
  %120 = load ptr, ptr %6, align 8
  %121 = load i32, ptr @hf_mpeg_descr_extended_event_text_encoding, align 4
  %122 = load ptr, ptr %4, align 8
  %123 = load i32, ptr %5, align 4
  %124 = load i32, ptr %13, align 4
  %125 = load i32, ptr %14, align 4
  call void @dvb_add_chartbl(ptr noundef %120, i32 noundef %121, ptr noundef %122, i32 noundef %123, i32 noundef %124, i32 noundef %125)
  %126 = load ptr, ptr %6, align 8
  %127 = load i32, ptr @hf_mpeg_descr_extended_event_text, align 4
  %128 = load ptr, ptr %4, align 8
  %129 = load i32, ptr %5, align 4
  %130 = load i32, ptr %13, align 4
  %131 = add i32 %129, %130
  %132 = load i8, ptr %10, align 1
  %133 = zext i8 %132 to i32
  %134 = load i32, ptr %13, align 4
  %135 = sub i32 %133, %134
  %136 = load i32, ptr %14, align 4
  %137 = call i32 @dvb_enc_to_item_enc(i32 noundef %136)
  %138 = call ptr @proto_tree_add_item(ptr noundef %126, i32 noundef %127, ptr noundef %128, i32 noundef %131, i32 noundef %135, i32 noundef %137)
  br label %139

139:                                              ; preds = %114, %100
  call void @llvm.lifetime.end.p0(i64 4, ptr %14) #4
  call void @llvm.lifetime.end.p0(i64 4, ptr %13) #4
  call void @llvm.lifetime.end.p0(i64 8, ptr %12) #4
  call void @llvm.lifetime.end.p0(i64 4, ptr %11) #4
  call void @llvm.lifetime.end.p0(i64 1, ptr %10) #4
  call void @llvm.lifetime.end.p0(i64 1, ptr %9) #4
  call void @llvm.lifetime.end.p0(i64 1, ptr %8) #4
  call void @llvm.lifetime.end.p0(i64 1, ptr %7) #4
  ret void
}