; Function Attrs: null_pointer_is_valid sspstrong uwtable
define internal fastcc void @proto_mpeg_descriptor_dissect_extended_event(ptr noundef %0, i32 noundef %1, ptr noundef %2) unnamed_addr #1 {
  %4 = alloca i32, align 4
  call void @llvm.lifetime.start.p0(i64 4, ptr nonnull %4) #5
  %5 = load i32, ptr @hf_mpeg_descr_extended_event_descriptor_number, align 4
  %6 = tail call ptr @proto_tree_add_item(ptr noundef %2, i32 noundef %5, ptr noundef %0, i32 noundef %1, i32 noundef 1, i32 noundef 0)
  %7 = load i32, ptr @hf_mpeg_descr_extended_event_last_descriptor_number, align 4
  %8 = tail call ptr @proto_tree_add_item(ptr noundef %2, i32 noundef %7, ptr noundef %0, i32 noundef %1, i32 noundef 1, i32 noundef 0)
  %9 = add i32 %1, 1
  %10 = load i32, ptr @hf_mpeg_descr_extended_event_lang_code, align 4
  %11 = tail call ptr @proto_tree_add_item(ptr noundef %2, i32 noundef %10, ptr noundef %0, i32 noundef %9, i32 noundef 3, i32 noundef 0)
  %12 = add i32 %1, 4
  %13 = tail call zeroext i8 @tvb_get_uint8(ptr noundef %0, i32 noundef %12)
  %14 = load i32, ptr @hf_mpeg_descr_extended_event_length_of_items, align 4
  %15 = tail call ptr @proto_tree_add_item(ptr noundef %2, i32 noundef %14, ptr noundef %0, i32 noundef %12, i32 noundef 1, i32 noundef 0)
  %16 = add i32 %1, 5
  %17 = zext i8 %13 to i32
  %18 = add i32 %16, %17
  %19 = icmp ult i32 %16, %18
  br i1 %19, label %.lr.ph, label %._crit_edge

.lr.ph:                                           ; preds = %3, %.lr.ph
  %.068 = phi i32 [ %37, %.lr.ph ], [ %16, %3 ]
  %20 = load i32, ptr @ett_mpeg_descriptor_extended_event_item, align 4
  %21 = tail call ptr @proto_tree_add_subtree(ptr noundef %2, ptr noundef %0, i32 noundef %.068, i32 noundef 0, i32 noundef %20, ptr noundef null, ptr noundef nonnull @.str.266)
  %22 = tail call zeroext i8 @tvb_get_uint8(ptr noundef %0, i32 noundef %.068)
  %23 = load i32, ptr @hf_mpeg_descr_extended_event_item_description_length, align 4
  %24 = tail call ptr @proto_tree_add_item(ptr noundef %21, i32 noundef %23, ptr noundef %0, i32 noundef %.068, i32 noundef 1, i32 noundef 0)
  %25 = add nuw i32 %.068, 1
  %26 = load i32, ptr @hf_mpeg_descr_extended_event_item_description_char, align 4
  %27 = zext i8 %22 to i32
  %28 = tail call ptr @proto_tree_add_item(ptr noundef %21, i32 noundef %26, ptr noundef %0, i32 noundef %25, i32 noundef %27, i32 noundef 0)
  %29 = add i32 %25, %27
  %30 = tail call zeroext i8 @tvb_get_uint8(ptr noundef %0, i32 noundef %29)
  %31 = load i32, ptr @hf_mpeg_descr_extended_event_item_length, align 4
  %32 = tail call ptr @proto_tree_add_item(ptr noundef %21, i32 noundef %31, ptr noundef %0, i32 noundef %29, i32 noundef 1, i32 noundef 0)
  %33 = add i32 %29, 1
  %34 = load i32, ptr @hf_mpeg_descr_extended_event_item_char, align 4
  %35 = zext i8 %30 to i32
  %36 = tail call ptr @proto_tree_add_item(ptr noundef %21, i32 noundef %34, ptr noundef %0, i32 noundef %33, i32 noundef %35, i32 noundef 0)
  %37 = add i32 %33, %35
  %38 = icmp ult i32 %37, %18
  br i1 %38, label %.lr.ph, label %._crit_edge, !llvm.loop !14

._crit_edge:                                      ; preds = %.lr.ph, %3
  %.0.lcssa = phi i32 [ %16, %3 ], [ %37, %.lr.ph ]
  %39 = tail call zeroext i8 @tvb_get_uint8(ptr noundef %0, i32 noundef %.0.lcssa)
  %40 = load i32, ptr @hf_mpeg_descr_extended_event_text_length, align 4
  %41 = tail call ptr @proto_tree_add_item(ptr noundef %2, i32 noundef %40, ptr noundef %0, i32 noundef %.0.lcssa, i32 noundef 1, i32 noundef 0)
  %.not = icmp eq i8 %39, 0
  br i1 %.not, label %54, label %42

42:                                               ; preds = %._crit_edge
  %43 = zext i8 %39 to i32
  %44 = add i32 %.0.lcssa, 1
  %45 = call i32 @dvb_analyze_string_charset(ptr noundef %0, i32 noundef %44, i32 noundef %43, ptr noundef nonnull %4)
  %46 = load i32, ptr @hf_mpeg_descr_extended_event_text_encoding, align 4
  %47 = load i32, ptr %4, align 4
  call void @dvb_add_chartbl(ptr noundef %2, i32 noundef %46, ptr noundef %0, i32 noundef %44, i32 noundef %45, i32 noundef %47)
  %48 = load i32, ptr @hf_mpeg_descr_extended_event_text, align 4
  %49 = add i32 %45, %44
  %50 = sub i32 %43, %45
  %51 = load i32, ptr %4, align 4
  %52 = call i32 @dvb_enc_to_item_enc(i32 noundef %51)
  %53 = call ptr @proto_tree_add_item(ptr noundef %2, i32 noundef %48, ptr noundef %0, i32 noundef %49, i32 noundef %50, i32 noundef %52)
  br label %54

54:                                               ; preds = %42, %._crit_edge
  call void @llvm.lifetime.end.p0(i64 4, ptr nonnull %4) #5
  ret void
}